target datalayout = "e-m:e-p270:32:32-p271:32:32-p272:64:64-i64:64-i128:128-f80:128-n8:16:32:64-S128"
target triple = "x86_64-pc-linux-gnu"

%struct.anon.3 = type { i32, i32 }

@wtap_encap_1_1 = internal constant [4 x %struct.anon.3] [%struct.anon.3 { i32 1, i32 0 }, %struct.anon.3 { i32 2, i32 1 }, %struct.anon.3 { i32 5, i32 2 }, %struct.anon.3 { i32 6, i32 2 }], align 16

; Function Attrs: nounwind null_pointer_is_valid sspstrong uwtable
define internal i32 @wtap_encap_to_netxray_1_1_encap(i32 noundef %0) #11 {
  %2 = alloca i32, align 4
  %3 = alloca i32, align 4
  %4 = alloca i32, align 4
  %5 = alloca i32, align 4
  store i32 %0, ptr %3, align 4
  call void @llvm.lifetime.start.p0(i64 4, ptr %4) #12
  store i32 0, ptr %4, align 4
  br label %6

6:                                                ; preds = %25, %1
  %7 = load i32, ptr %4, align 4
  %8 = zext i32 %7 to i64
  %9 = icmp ult i64 %8, 4
  br i1 %9, label %10, label %28

10:                                               ; preds = %6
  %11 = load i32, ptr %3, align 4
  %12 = load i32, ptr %4, align 4
  %13 = zext i32 %12 to i64
  %14 = getelementptr [4 x %struct.anon.3], ptr @wtap_encap_1_1, i64 0, i64 %13
  %15 = getelementptr inbounds nuw %struct.anon.3, ptr %14, i32 0, i32 0
  %16 = load i32, ptr %15, align 8
  %17 = icmp eq i32 %11, %16
  br i1 %17, label %18, label %24

18:                                               ; preds = %10
  %19 = load i32, ptr %4, align 4
  %20 = zext i32 %19 to i64
  %21 = getelementptr [4 x %struct.anon.3], ptr @wtap_encap_1_1, i64 0, i64 %20
  %22 = getelementptr inbounds nuw %struct.anon.3, ptr %21, i32 0, i32 1
  %23 = load i32, ptr %22, align 4
  store i32 %23, ptr %2, align 4
  store i32 1, ptr %5, align 4
  br label %29

24:                                               ; preds = %10
  br label %25

25:                                               ; preds = %24
  %26 = load i32, ptr %4, align 4
  %27 = add i32 %26, 1
  store i32 %27, ptr %4, align 4
  br label %6, !llvm.loop !8

28:                                               ; preds = %6
  store i32 -1, ptr %2, align 4
  store i32 1, ptr %5, align 4
  br label %29

29:                                               ; preds = %28, %18
  call void @llvm.lifetime.end.p0(i64 4, ptr %4) #12
  %30 = load i32, ptr %2, align 4
  ret i32 %30
}

; Function Attrs: null_pointer_is_valid sspstrong uwtable
define internal i32 @netxray_dump_can_write_encap_1_1(i32 noundef %0) #0 {
  %2 = alloca i32, align 4
  %3 = alloca i32, align 4
  store i32 %0, ptr %3, align 4
  %4 = load i32, ptr %3, align 4
  %5 = icmp eq i32 %4, -1
  br i1 %5, label %6, label %7

6:                                                ; preds = %1
  store i32 -9, ptr %2, align 4
  br label %13

7:                                                ; preds = %1
  %8 = load i32, ptr %3, align 4
  %9 = call i32 @wtap_encap_to_netxray_1_1_encap(i32 noundef %8)
  %10 = icmp eq i32 %9, -1
  br i1 %10, label %11, label %12

11:                                               ; preds = %7
  store i32 -8, ptr %2, align 4
  br label %13

12:                                               ; preds = %7
  store i32 0, ptr %2, align 4
  br label %13

13:                                               ; preds = %12, %11, %6
  %14 = load i32, ptr %2, align 4
  ret i32 %14
}